; Function Attrs: mustprogress uwtable
define noundef zeroext i1 @_ZNK7openvdb5v11_06points14AttributeArrayeqERKS2_(ptr noundef nonnull align 8 dereferenceable(24) %this, ptr noundef nonnull align 8 dereferenceable(24) %other) local_unnamed_addr #4 align 2 {
entry:
  %vtable = load ptr, ptr %this, align 8
  %vfn = getelementptr inbounds i8, ptr %vtable, i64 248
  %0 = load ptr, ptr %vfn, align 8
  tail call void %0(ptr noundef nonnull align 8 dereferenceable(24) %this)
  %vtable2 = load ptr, ptr %other, align 8
  %vfn3 = getelementptr inbounds i8, ptr %vtable2, i64 248
  %1 = load ptr, ptr %vfn3, align 8
  tail call void %1(ptr noundef nonnull align 8 dereferenceable(24) %other)
  %mUsePagedRead = getelementptr inbounds i8, ptr %this, i64 11
  %2 = load i8, ptr %mUsePagedRead, align 1
  %mUsePagedRead4 = getelementptr inbounds i8, ptr %other, i64 11
  %3 = load i8, ptr %mUsePagedRead4, align 1
  %cmp.not = icmp eq i8 %2, %3
  br i1 %cmp.not, label %lor.lhs.false, label %return

lor.lhs.false:                                    ; preds = %entry
  %mFlags = getelementptr inbounds i8, ptr %this, i64 10
  %4 = load i8, ptr %mFlags, align 2
  %mFlags7 = getelementptr inbounds i8, ptr %other, i64 10
  %5 = load i8, ptr %mFlags7, align 2
  %cmp9.not = icmp eq i8 %4, %5
  br i1 %cmp9.not, label %if.end, label %return

if.end:                                           ; preds = %lor.lhs.false
  %vtable10 = load ptr, ptr %this, align 8
  %vfn11 = getelementptr inbounds i8, ptr %vtable10, i64 264
  %6 = load ptr, ptr %vfn11, align 8
  %call = tail call noundef zeroext i1 %6(ptr noundef nonnull align 8 dereferenceable(24) %this, ptr noundef nonnull align 8 dereferenceable(24) %other)
  br label %return

return:                                           ; preds = %entry, %lor.lhs.false, %if.end
  %retval.0 = phi i1 [ %call, %if.end ], [ false, %lor.lhs.false ], [ false, %entry ]
  ret i1 %retval.0
}